
rcu-t.ko:     file format elf64-x86-64


Disassembly of section .text:

0000000000000000 <do_something_with>:
   0:	e8 00 00 00 00       	call   5 <do_something_with+0x5>
   5:	55                   	push   rbp
   6:	48 89 e5             	mov    rbp,rsp
   9:	5d                   	pop    rbp
   a:	c3                   	ret    
   b:	0f 1f 44 00 00       	nop    DWORD PTR [rax+rax*1+0x0]

0000000000000010 <rcu_t>:
  10:	e8 00 00 00 00       	call   15 <rcu_t+0x5>
  15:	55                   	push   rbp
  16:	ba 0c 00 00 00       	mov    edx,0xc
  1b:	be c0 0c 00 00       	mov    esi,0xcc0
  20:	48 8b 3d 00 00 00 00 	mov    rdi,QWORD PTR [rip+0x0]        # 27 <rcu_t+0x17>
  27:	48 89 e5             	mov    rbp,rsp
  2a:	e8 00 00 00 00       	call   2f <rcu_t+0x1f>
  2f:	41 b8 03 00 00 00    	mov    r8d,0x3
  35:	b9 02 00 00 00       	mov    ecx,0x2
  3a:	ba 01 00 00 00       	mov    edx,0x1
  3f:	48 89 c6             	mov    rsi,rax
  42:	48 c7 c7 00 00 00 00 	mov    rdi,0x0
  49:	48 b8 01 00 00 00 02 	movabs rax,0x200000001
  50:	00 00 00 
  53:	48 89 06             	mov    QWORD PTR [rsi],rax
  56:	49 89 f1             	mov    r9,rsi
  59:	c7 46 08 03 00 00 00 	mov    DWORD PTR [rsi+0x8],0x3
  60:	e8 00 00 00 00       	call   65 <rcu_t+0x55>
  65:	5d                   	pop    rbp
  66:	c3                   	ret    
  67:	66 0f 1f 84 00 00 00 	nop    WORD PTR [rax+rax*1+0x0]
  6e:	00 00 

0000000000000070 <rcu_t2>:
  70:	e8 00 00 00 00       	call   75 <rcu_t2+0x5>
  75:	55                   	push   rbp
  76:	ba 0c 00 00 00       	mov    edx,0xc
  7b:	be c0 0c 00 00       	mov    esi,0xcc0
  80:	48 89 e5             	mov    rbp,rsp
  83:	48 83 ec 10          	sub    rsp,0x10
  87:	48 8b 3d 00 00 00 00 	mov    rdi,QWORD PTR [rip+0x0]        # 8e <rcu_t2+0x1e>
  8e:	65 48 8b 04 25 28 00 	mov    rax,QWORD PTR gs:0x28
  95:	00 00 
  97:	48 89 45 f8          	mov    QWORD PTR [rbp-0x8],rax
  9b:	31 c0                	xor    eax,eax
  9d:	48 c7 45 f0 00 00 00 	mov    QWORD PTR [rbp-0x10],0x0
  a4:	00 
  a5:	e8 00 00 00 00       	call   aa <rcu_t2+0x3a>
  aa:	48 89 c6             	mov    rsi,rax
  ad:	48 b8 01 00 00 00 02 	movabs rax,0x200000001
  b4:	00 00 00 
  b7:	48 89 06             	mov    QWORD PTR [rsi],rax
  ba:	c7 46 08 03 00 00 00 	mov    DWORD PTR [rsi+0x8],0x3
  c1:	8b 4e 04             	mov    ecx,DWORD PTR [rsi+0x4]
  c4:	44 8b 46 08          	mov    r8d,DWORD PTR [rsi+0x8]
  c8:	49 89 f1             	mov    r9,rsi
  cb:	48 89 75 f0          	mov    QWORD PTR [rbp-0x10],rsi
  cf:	8b 16                	mov    edx,DWORD PTR [rsi]
  d1:	48 c7 c7 00 00 00 00 	mov    rdi,0x0
  d8:	e8 00 00 00 00       	call   dd <rcu_t2+0x6d>
  dd:	48 8b 45 f8          	mov    rax,QWORD PTR [rbp-0x8]
  e1:	65 48 33 04 25 28 00 	xor    rax,QWORD PTR gs:0x28
  e8:	00 00 
  ea:	75 02                	jne    ee <rcu_t2+0x7e>
  ec:	c9                   	leave  
  ed:	c3                   	ret    
  ee:	e8 00 00 00 00       	call   f3 <__UNIQUE_ID_vermagic123+0x6d>

Disassembly of section .init.text:

0000000000000000 <init_module>:
   0:	e8 00 00 00 00       	call   5 <init_module+0x5>
   5:	55                   	push   rbp
   6:	48 c7 c7 00 00 00 00 	mov    rdi,0x0
   d:	48 89 e5             	mov    rbp,rsp
  10:	e8 00 00 00 00       	call   15 <init_module+0x15>
  15:	e8 00 00 00 00       	call   1a <init_module+0x1a>
  1a:	e8 00 00 00 00       	call   1f <init_module+0x1f>
  1f:	31 c0                	xor    eax,eax
  21:	5d                   	pop    rbp
  22:	c3                   	ret    

Disassembly of section .exit.text:

0000000000000000 <cleanup_module>:
   0:	55                   	push   rbp
   1:	48 c7 c7 00 00 00 00 	mov    rdi,0x0
   8:	48 89 e5             	mov    rbp,rsp
   b:	e8 00 00 00 00       	call   10 <cleanup_module+0x10>
  10:	5d                   	pop    rbp
  11:	c3                   	ret    

Disassembly of section __mcount_loc:

0000000000000000 <__mcount_loc>:
	...

Disassembly of section .modinfo:

0000000000000000 <__UNIQUE_ID_version132>:
   0:	76 65                	jbe    67 <__UNIQUE_ID_depends126+0x1>
   2:	72 73                	jb     77 <__UNIQUE_ID_retpoline125+0x8>
   4:	69 6f 6e 3d 30 2e 31 	imul   ebp,DWORD PTR [rdi+0x6e],0x312e303d
	...

000000000000000c <__UNIQUE_ID_description131>:
   c:	64 65 73 63          	fs gs jae 73 <__UNIQUE_ID_retpoline125+0x4>
  10:	72 69                	jb     7b <__UNIQUE_ID_name124>
  12:	70 74                	jo     88 <__UNIQUE_ID_vermagic123+0x2>
  14:	69 6f 6e 3d 4b 65 72 	imul   ebp,DWORD PTR [rdi+0x6e],0x72654b3d
  1b:	6e                   	outs   dx,BYTE PTR ds:[rsi]
  1c:	65 6c                	gs ins BYTE PTR es:[rdi],dx
  1e:	20 78 78             	and    BYTE PTR [rax+0x78],bh
  21:	78 20                	js     43 <__UNIQUE_ID_srcversion127>
  23:	4d 6f                	rex.WRB outs dx,DWORD PTR ds:[rsi]
  25:	64 75 6c             	fs jne 94 <__UNIQUE_ID_vermagic123+0xe>
  28:	65 2e 00         	gs add BYTE PTR cs:[rcx+0x75],ah

000000000000002b <__UNIQUE_ID_author130>:
  2b:	61                   	(bad)  
  2c:	75 74                	jne    a2 <__UNIQUE_ID_vermagic123+0x1c>
  2e:	68 6f 72 3d 58       	push   0x583d726f
  33:	2b 2b                	sub    ebp,DWORD PTR [rbx]
  35:	44 00          	add    BYTE PTR [rcx+rbp*2+0x63],r13b

0000000000000037 <__UNIQUE_ID_license129>:
  37:	6c                   	ins    BYTE PTR es:[rdi],dx
  38:	69 63 65 6e 73 65 3d 	imul   esp,DWORD PTR [rbx+0x65],0x3d65736e
  3f:	47 50                	rex.RXB push r8
  41:	4c 00            	rex.WR add BYTE PTR [rbx+0x72],r14b

0000000000000043 <__UNIQUE_ID_srcversion127>:
  43:	73 72                	jae    b7 <__UNIQUE_ID_vermagic123+0x31>
  45:	63 76 65             	movsxd esi,DWORD PTR [rsi+0x65]
  48:	72 73                	jb     bd <__UNIQUE_ID_vermagic123+0x37>
  4a:	69 6f 6e 3d 39 39 35 	imul   ebp,DWORD PTR [rdi+0x6e],0x3539393d
  51:	46                   	rex.RX
  52:	42                   	rex.X
  53:	43 38 45 45          	rex.XB cmp BYTE PTR [r13+0x45],al
  57:	31 41 39             	xor    DWORD PTR [rcx+0x39],eax
  5a:	39 31                	cmp    DWORD PTR [rcx],esi
  5c:	30 41 36             	xor    BYTE PTR [rcx+0x36],al
  5f:	35 45 34 41 43       	xor    eax,0x43413445
  64:	31 00                	xor    DWORD PTR [rax],eax

0000000000000066 <__UNIQUE_ID_depends126>:
  66:	64 65 70 65          	fs gs jo cf <__UNIQUE_ID_vermagic123+0x49>
  6a:	6e                   	outs   dx,BYTE PTR ds:[rsi]
  6b:	64 73 3d             	fs jae ab <__UNIQUE_ID_vermagic123+0x25>
	...

000000000000006f <__UNIQUE_ID_retpoline125>:
  6f:	72 65                	jb     d6 <__UNIQUE_ID_vermagic123+0x50>
  71:	74 70                	je     e3 <__UNIQUE_ID_vermagic123+0x5d>
  73:	6f                   	outs   dx,DWORD PTR ds:[rsi]
  74:	6c                   	ins    BYTE PTR es:[rdi],dx
  75:	69 6e 65 3d 59 00  	imul   ebp,DWORD PTR [rsi+0x65],0x6e00593d

000000000000007b <__UNIQUE_ID_name124>:
  7b:	6e                   	outs   dx,BYTE PTR ds:[rsi]
  7c:	61                   	(bad)  
  7d:	6d                   	ins    DWORD PTR es:[rdi],dx
  7e:	65 3d 72 63 75 5f    	gs cmp eax,0x5f756372
  84:	74 00                	je     86 <__UNIQUE_ID_vermagic123>

0000000000000086 <__UNIQUE_ID_vermagic123>:
  86:	76 65                	jbe    ed <__UNIQUE_ID_vermagic123+0x67>
  88:	72 6d                	jb     f7 <__UNIQUE_ID_vermagic123+0x71>
  8a:	61                   	(bad)  
  8b:	67 69 63 3d 35 2e 31 	imul   esp,DWORD PTR [ebx+0x3d],0x33312e35
  92:	33 
  93:	2e 30 2d 34 34 2d 67 	xor    BYTE PTR cs:[rip+0x672d3434],ch        # 672d34ce <__UNIQUE_ID_vermagic123+0x672d3448>
  9a:	65 6e                	outs   dx,BYTE PTR gs:[rsi]
  9c:	65 72 69             	gs jb  108 <__UNIQUE_ID_vermagic123+0x82>
  9f:	63 20                	movsxd esp,DWORD PTR [rax]
  a1:	53                   	push   rbx
  a2:	4d 50                	rex.WRB push r8
  a4:	20 6d 6f             	and    BYTE PTR [rbp+0x6f],ch
  a7:	64 5f                	fs pop rdi
  a9:	75 6e                	jne    119 <__UNIQUE_ID_vermagic123+0x93>
  ab:	6c                   	ins    BYTE PTR es:[rdi],dx
  ac:	6f                   	outs   dx,DWORD PTR ds:[rsi]
  ad:	61                   	(bad)  
  ae:	64 20 6d 6f          	and    BYTE PTR fs:[rbp+0x6f],ch
  b2:	64 76 65             	fs jbe 11a <__UNIQUE_ID_vermagic123+0x94>
  b5:	72 73                	jb     12a <__UNIQUE_ID_vermagic123+0xa4>
  b7:	69                   	.byte 0x69
  b8:	6f                   	outs   dx,DWORD PTR ds:[rsi]
  b9:	6e                   	outs   dx,BYTE PTR ds:[rsi]
  ba:	73 20                	jae    dc <__UNIQUE_ID_vermagic123+0x56>
	...

Disassembly of section __versions:

0000000000000000 <____versions>:
   0:	80 6f 72 d9          	sub    BYTE PTR [rdi+0x72],0xd9
   4:	00 00                	add    BYTE PTR [rax],al
   6:	00 00                	add    BYTE PTR [rax],al
   8:	6d                   	ins    DWORD PTR es:[rdi],dx
   9:	6f                   	outs   dx,DWORD PTR ds:[rsi]
   a:	64 75 6c             	fs jne 79 <____versions+0x79>
   d:	65 5f                	gs pop rdi
   f:	6c                   	ins    BYTE PTR es:[rdi],dx
  10:	61                   	(bad)  
  11:	79 6f                	jns    82 <____versions+0x82>
  13:	75 74                	jne    89 <____versions+0x89>
	...
  3d:	00 00                	add    BYTE PTR [rax],al
  3f:	00 52 d1             	add    BYTE PTR [rdx-0x2f],dl
  42:	59                   	pop    rcx
  43:	c9                   	leave  
  44:	00 00                	add    BYTE PTR [rax],al
  46:	00 00                	add    BYTE PTR [rax],al
  48:	5f                   	pop    rdi
  49:	5f                   	pop    rdi
  4a:	73 74                	jae    c0 <____versions+0xc0>
  4c:	61                   	(bad)  
  4d:	63 6b 5f             	movsxd ebp,DWORD PTR [rbx+0x5f]
  50:	63 68 6b             	movsxd ebp,DWORD PTR [rax+0x6b]
  53:	5f                   	pop    rdi
  54:	66 61                	data16 (bad) 
  56:	69 6c 00 00 00 00 00 	imul   ebp,DWORD PTR [rax+rax*1+0x0],0x0
  5d:	00 
	...
  7e:	00 00                	add    BYTE PTR [rax],al
  80:	10 01                	adc    BYTE PTR [rcx],al
  82:	85 c5                	test   ebp,eax
  84:	00 00                	add    BYTE PTR [rax],al
  86:	00 00                	add    BYTE PTR [rax],al
  88:	70 72                	jo     fc <____versions+0xfc>
  8a:	69 6e 74 6b 00 00 00 	imul   ebp,DWORD PTR [rsi+0x74],0x6b
	...
  bd:	00 00                	add    BYTE PTR [rax],al
  bf:	00 12                	add    BYTE PTR [rdx],dl
  c1:	c1 ec 69             	shr    esp,0x69
  c4:	00 00                	add    BYTE PTR [rax],al
  c6:	00 00                	add    BYTE PTR [rax],al
  c8:	6b 6d 65 6d          	imul   ebp,DWORD PTR [rbp+0x65],0x6d
  cc:	5f                   	pop    rdi
  cd:	63 61 63             	movsxd esp,DWORD PTR [rcx+0x63]
  d0:	68 65 5f 61 6c       	push   0x6c615f65
  d5:	6c                   	ins    BYTE PTR es:[rdi],dx
  d6:	6f                   	outs   dx,DWORD PTR ds:[rsi]
  d7:	63 5f 74             	movsxd ebx,DWORD PTR [rdi+0x74]
  da:	72 61                	jb     13d <____versions+0x13d>
  dc:	63 65 00             	movsxd esp,DWORD PTR [rbp+0x0]
	...
  ff:	00 94 1c c1 36 00 00 	add    BYTE PTR [rsp+rbx*1+0x36c1],dl
 106:	00 00                	add    BYTE PTR [rax],al
 108:	6b 6d 61 6c          	imul   ebp,DWORD PTR [rbp+0x61],0x6c
 10c:	6c                   	ins    BYTE PTR es:[rdi],dx
 10d:	6f                   	outs   dx,DWORD PTR ds:[rsi]
 10e:	63 5f 63             	movsxd ebx,DWORD PTR [rdi+0x63]
 111:	61                   	(bad)  
 112:	63 68 65             	movsxd ebp,DWORD PTR [rax+0x65]
 115:	73 00                	jae    117 <____versions+0x117>
	...
 13f:	00 bb 6d fb bd 00    	add    BYTE PTR [rbx+0xbdfb6d],bh
 145:	00 00                	add    BYTE PTR [rax],al
 147:	00 5f 5f             	add    BYTE PTR [rdi+0x5f],bl
 14a:	66 65 6e             	data16 outs dx,BYTE PTR gs:[rsi]
 14d:	74 72                	je     1c1 <__UNIQUE_ID_vermagic123+0x13b>
 14f:	79 5f                	jns    1b0 <__UNIQUE_ID_vermagic123+0x12a>
 151:	5f                   	pop    rdi
	...
